; ModuleID = '24/770.c'
source_filename = "24/770.c"
target datalayout = "e-m:e-p270:32:32-p271:32:32-p272:64:64-i64:64-f80:128-n8:16:32:64-S128"
target triple = "x86_64-pc-linux-gnu"

@.str = private unnamed_addr constant [3 x i8] c"%s\00", align 1
@.str.1 = private unnamed_addr constant [6 x i8] c"%s\0A%s\00", align 1

; Function Attrs: noinline nounwind uwtable
define dso_local void @main() #0 {
  %1 = alloca [100 x [100 x i8]], align 16
  %2 = alloca [100 x i32], align 16
  %3 = alloca i32, align 4
  %4 = alloca i8, align 1
  %5 = alloca i32, align 4
  %6 = alloca i32, align 4
  %7 = alloca i32, align 4
  %8 = alloca i32, align 4
  %9 = alloca i32, align 4
  store i32 0, i32* %3, align 4
  br label %10

10:                                               ; preds = %23, %0
  %11 = load i32, i32* %3, align 4
  %12 = sext i32 %11 to i64
  %13 = getelementptr inbounds [100 x [100 x i8]], [100 x [100 x i8]]* %1, i64 0, i64 %12
  %14 = getelementptr inbounds [100 x i8], [100 x i8]* %13, i64 0, i64 0
  %15 = call i32 (i8*, ...) @__isoc99_scanf(i8* getelementptr inbounds ([3 x i8], [3 x i8]* @.str, i64 0, i64 0), i8* %14)
  %16 = call i32 @getchar()
  %17 = trunc i32 %16 to i8
  store i8 %17, i8* %4, align 1
  %18 = load i8, i8* %4, align 1
  %19 = sext i8 %18 to i32
  %20 = icmp eq i32 %19, 10
  br i1 %20, label %21, label %22

21:                                               ; preds = %10
  br label %26

22:                                               ; preds = %10
  br label %23

23:                                               ; preds = %22
  %24 = load i32, i32* %3, align 4
  %25 = add nsw i32 %24, 1
  store i32 %25, i32* %3, align 4
  br label %10

26:                                               ; preds = %21
  %27 = load i32, i32* %3, align 4
  %28 = add nsw i32 %27, 1
  store i32 %28, i32* %5, align 4
  store i32 0, i32* %3, align 4
  br label %29

29:                                               ; preds = %43, %26
  %30 = load i32, i32* %3, align 4
  %31 = load i32, i32* %5, align 4
  %32 = icmp slt i32 %30, %31
  br i1 %32, label %33, label %46

33:                                               ; preds = %29
  %34 = load i32, i32* %3, align 4
  %35 = sext i32 %34 to i64
  %36 = getelementptr inbounds [100 x [100 x i8]], [100 x [100 x i8]]* %1, i64 0, i64 %35
  %37 = getelementptr inbounds [100 x i8], [100 x i8]* %36, i64 0, i64 0
  %38 = call i64 @strlen(i8* %37) #3
  %39 = trunc i64 %38 to i32
  %40 = load i32, i32* %3, align 4
  %41 = sext i32 %40 to i64
  %42 = getelementptr inbounds [100 x i32], [100 x i32]* %2, i64 0, i64 %41
  store i32 %39, i32* %42, align 4
  br label %43

43:                                               ; preds = %33
  %44 = load i32, i32* %3, align 4
  %45 = add nsw i32 %44, 1
  store i32 %45, i32* %3, align 4
  br label %29

46:                                               ; preds = %29
  store i32 0, i32* %6, align 4
  store i32 100, i32* %7, align 4
  store i32 0, i32* %8, align 4
  store i32 0, i32* %9, align 4
  store i32 0, i32* %3, align 4
  br label %47

47:                                               ; preds = %78, %46
  %48 = load i32, i32* %3, align 4
  %49 = load i32, i32* %5, align 4
  %50 = icmp slt i32 %48, %49
  br i1 %50, label %51, label %81

51:                                               ; preds = %47
  %52 = load i32, i32* %3, align 4
  %53 = sext i32 %52 to i64
  %54 = getelementptr inbounds [100 x i32], [100 x i32]* %2, i64 0, i64 %53
  %55 = load i32, i32* %54, align 4
  %56 = load i32, i32* %6, align 4
  %57 = icmp sgt i32 %55, %56
  br i1 %57, label %58, label %64

58:                                               ; preds = %51
  %59 = load i32, i32* %3, align 4
  %60 = sext i32 %59 to i64
  %61 = getelementptr inbounds [100 x i32], [100 x i32]* %2, i64 0, i64 %60
  %62 = load i32, i32* %61, align 4
  store i32 %62, i32* %6, align 4
  %63 = load i32, i32* %3, align 4
  store i32 %63, i32* %8, align 4
  br label %64

64:                                               ; preds = %58, %51
  %65 = load i32, i32* %3, align 4
  %66 = sext i32 %65 to i64
  %67 = getelementptr inbounds [100 x i32], [100 x i32]* %2, i64 0, i64 %66
  %68 = load i32, i32* %67, align 4
  %69 = load i32, i32* %7, align 4
  %70 = icmp slt i32 %68, %69
  br i1 %70, label %71, label %77

71:                                               ; preds = %64
  %72 = load i32, i32* %3, align 4
  %73 = sext i32 %72 to i64
  %74 = getelementptr inbounds [100 x i32], [100 x i32]* %2, i64 0, i64 %73
  %75 = load i32, i32* %74, align 4
  store i32 %75, i32* %7, align 4
  %76 = load i32, i32* %3, align 4
  store i32 %76, i32* %9, align 4
  br label %77

77:                                               ; preds = %71, %64
  br label %78

78:                                               ; preds = %77
  %79 = load i32, i32* %3, align 4
  %80 = add nsw i32 %79, 1
  store i32 %80, i32* %3, align 4
  br label %47

81:                                               ; preds = %47
  %82 = load i32, i32* %8, align 4
  %83 = sext i32 %82 to i64
  %84 = getelementptr inbounds [100 x [100 x i8]], [100 x [100 x i8]]* %1, i64 0, i64 %83
  %85 = getelementptr inbounds [100 x i8], [100 x i8]* %84, i64 0, i64 0
  %86 = load i32, i32* %9, align 4
  %87 = sext i32 %86 to i64
  %88 = getelementptr inbounds [100 x [100 x i8]], [100 x [100 x i8]]* %1, i64 0, i64 %87
  %89 = getelementptr inbounds [100 x i8], [100 x i8]* %88, i64 0, i64 0
  %90 = call i32 (i8*, ...) @printf(i8* getelementptr inbounds ([6 x i8], [6 x i8]* @.str.1, i64 0, i64 0), i8* %85, i8* %89)
  ret void
}

declare dso_local i32 @__isoc99_scanf(i8*, ...) #1

declare dso_local i32 @getchar() #1

; Function Attrs: nounwind readonly
declare dso_local i64 @strlen(i8*) #2

declare dso_local i32 @printf(i8*, ...) #1


!llvm.module.flags = !{!0}
!llvm.ident = !{!1}

!0 = !{i32 1, !"wchar_size", i32 4}
!1 = !{!"clang version 10.0.0-4ubuntu1 "}
